; ModuleID = '62/3053.c'
source_filename = "62/3053.c"
target datalayout = "e-m:e-p270:32:32-p271:32:32-p272:64:64-i64:64-f80:128-n8:16:32:64-S128"
target triple = "x86_64-pc-linux-gnu"

@.str = private unnamed_addr constant [3 x i8] c"%s\00", align 1

; Function Attrs: noinline nounwind uwtable
define dso_local i32 @main() #0 {
  %1 = alloca i32, align 4
  %2 = alloca i32, align 4
  %3 = alloca i32, align 4
  %4 = alloca [2 x [1001 x i8]], align 16
  store i32 0, i32* %1, align 4
  store i32 0, i32* %3, align 4
  %5 = getelementptr inbounds [2 x [1001 x i8]], [2 x [1001 x i8]]* %4, i64 0, i64 0
  %6 = getelementptr inbounds [1001 x i8], [1001 x i8]* %5, i64 0, i64 0
  %7 = call i32 (i8*, ...) bitcast (i32 (...)* @gets to i32 (i8*, ...)*)(i8* %6)
  store i32 0, i32* %2, align 4
  br label %8

8:                                                ; preds = %53, %0
  %9 = load i32, i32* %2, align 4
  %10 = sext i32 %9 to i64
  %11 = getelementptr inbounds [2 x [1001 x i8]], [2 x [1001 x i8]]* %4, i64 0, i64 0
  %12 = getelementptr inbounds [1001 x i8], [1001 x i8]* %11, i64 0, i64 0
  %13 = call i64 @strlen(i8* %12) #3
  %14 = icmp ult i64 %10, %13
  br i1 %14, label %15, label %56

15:                                               ; preds = %8
  %16 = getelementptr inbounds [2 x [1001 x i8]], [2 x [1001 x i8]]* %4, i64 0, i64 0
  %17 = load i32, i32* %2, align 4
  %18 = sext i32 %17 to i64
  %19 = getelementptr inbounds [1001 x i8], [1001 x i8]* %16, i64 0, i64 %18
  %20 = load i8, i8* %19, align 1
  %21 = sext i8 %20 to i32
  %22 = icmp ne i32 %21, 32
  br i1 %22, label %40, label %23

23:                                               ; preds = %15
  %24 = getelementptr inbounds [2 x [1001 x i8]], [2 x [1001 x i8]]* %4, i64 0, i64 0
  %25 = load i32, i32* %2, align 4
  %26 = sext i32 %25 to i64
  %27 = getelementptr inbounds [1001 x i8], [1001 x i8]* %24, i64 0, i64 %26
  %28 = load i8, i8* %27, align 1
  %29 = sext i8 %28 to i32
  %30 = icmp eq i32 %29, 32
  br i1 %30, label %31, label %52

31:                                               ; preds = %23
  %32 = getelementptr inbounds [2 x [1001 x i8]], [2 x [1001 x i8]]* %4, i64 0, i64 0
  %33 = load i32, i32* %2, align 4
  %34 = sub nsw i32 %33, 1
  %35 = sext i32 %34 to i64
  %36 = getelementptr inbounds [1001 x i8], [1001 x i8]* %32, i64 0, i64 %35
  %37 = load i8, i8* %36, align 1
  %38 = sext i8 %37 to i32
  %39 = icmp ne i32 %38, 32
  br i1 %39, label %40, label %52

40:                                               ; preds = %31, %15
  %41 = getelementptr inbounds [2 x [1001 x i8]], [2 x [1001 x i8]]* %4, i64 0, i64 0
  %42 = load i32, i32* %2, align 4
  %43 = sext i32 %42 to i64
  %44 = getelementptr inbounds [1001 x i8], [1001 x i8]* %41, i64 0, i64 %43
  %45 = load i8, i8* %44, align 1
  %46 = getelementptr inbounds [2 x [1001 x i8]], [2 x [1001 x i8]]* %4, i64 0, i64 1
  %47 = load i32, i32* %3, align 4
  %48 = sext i32 %47 to i64
  %49 = getelementptr inbounds [1001 x i8], [1001 x i8]* %46, i64 0, i64 %48
  store i8 %45, i8* %49, align 1
  %50 = load i32, i32* %3, align 4
  %51 = add nsw i32 %50, 1
  store i32 %51, i32* %3, align 4
  br label %52

52:                                               ; preds = %40, %31, %23
  br label %53

53:                                               ; preds = %52
  %54 = load i32, i32* %2, align 4
  %55 = add nsw i32 %54, 1
  store i32 %55, i32* %2, align 4
  br label %8

56:                                               ; preds = %8
  %57 = getelementptr inbounds [2 x [1001 x i8]], [2 x [1001 x i8]]* %4, i64 0, i64 1
  %58 = load i32, i32* %3, align 4
  %59 = sext i32 %58 to i64
  %60 = getelementptr inbounds [1001 x i8], [1001 x i8]* %57, i64 0, i64 %59
  store i8 0, i8* %60, align 1
  %61 = getelementptr inbounds [2 x [1001 x i8]], [2 x [1001 x i8]]* %4, i64 0, i64 1
  %62 = getelementptr inbounds [1001 x i8], [1001 x i8]* %61, i64 0, i64 0
  %63 = call i32 (i8*, ...) @printf(i8* getelementptr inbounds ([3 x i8], [3 x i8]* @.str, i64 0, i64 0), i8* %62)
  ret i32 0
}

declare dso_local i32 @gets(...) #1

; Function Attrs: nounwind readonly
declare dso_local i64 @strlen(i8*) #2

declare dso_local i32 @printf(i8*, ...) #1


!llvm.module.flags = !{!0}
!llvm.ident = !{!1}

!0 = !{i32 1, !"wchar_size", i32 4}
!1 = !{!"clang version 10.0.0-4ubuntu1 "}
