; ModuleID = 'source-C-CXX/61/3053.c'
source_filename = "source-C-CXX/61/3053.c"
target datalayout = "e-m:e-p270:32:32-p271:32:32-p272:64:64-i64:64-f80:128-n8:16:32:64-S128"
target triple = "x86_64-pc-linux-gnu"

@.str = private unnamed_addr constant [3 x i8] c"%s\00", align 1

; Function Attrs: nounwind sspstrong uwtable
define dso_local i32 @main() local_unnamed_addr #0 {
  %1 = alloca [2 x [1001 x i8]], align 16
  %2 = getelementptr inbounds [2 x [1001 x i8]], [2 x [1001 x i8]]* %1, i64 0, i64 0, i64 0
  call void @llvm.lifetime.start.p0i8(i64 2002, i8* nonnull %2) #5
  %3 = call i32 (i8*, ...) bitcast (i32 (...)* @gets to i32 (i8*, ...)*)(i8* nonnull %2) #5
  %4 = call i64 @strlen(i8* noundef nonnull %2) #6
  %5 = icmp eq i64 %4, 0
  br i1 %5, label %26, label %6

6:                                                ; preds = %0, %21
  %7 = phi i64 [ %23, %21 ], [ 0, %0 ]
  %8 = phi i32 [ %22, %21 ], [ 0, %0 ]
  %9 = getelementptr inbounds [2 x [1001 x i8]], [2 x [1001 x i8]]* %1, i64 0, i64 0, i64 %7
  %10 = load i8, i8* %9, align 1, !tbaa !5
  %11 = icmp eq i8 %10, 32
  br i1 %11, label %12, label %17

12:                                               ; preds = %6
  %13 = add nsw i64 %7, -1
  %14 = getelementptr inbounds [2 x [1001 x i8]], [2 x [1001 x i8]]* %1, i64 0, i64 0, i64 %13
  %15 = load i8, i8* %14, align 1, !tbaa !5
  %16 = icmp eq i8 %15, 32
  br i1 %16, label %21, label %17

17:                                               ; preds = %12, %6
  %18 = sext i32 %8 to i64
  %19 = getelementptr inbounds [2 x [1001 x i8]], [2 x [1001 x i8]]* %1, i64 0, i64 1, i64 %18
  store i8 %10, i8* %19, align 1, !tbaa !5
  %20 = add nsw i32 %8, 1
  br label %21

21:                                               ; preds = %12, %17
  %22 = phi i32 [ %20, %17 ], [ %8, %12 ]
  %23 = add nuw nsw i64 %7, 1
  %24 = call i64 @strlen(i8* noundef nonnull %2) #6
  %25 = icmp ugt i64 %24, %23
  br i1 %25, label %6, label %26, !llvm.loop !8

26:                                               ; preds = %21, %0
  %27 = phi i32 [ 0, %0 ], [ %22, %21 ]
  %28 = sext i32 %27 to i64
  %29 = getelementptr inbounds [2 x [1001 x i8]], [2 x [1001 x i8]]* %1, i64 0, i64 1, i64 %28
  store i8 0, i8* %29, align 1, !tbaa !5
  %30 = getelementptr inbounds [2 x [1001 x i8]], [2 x [1001 x i8]]* %1, i64 0, i64 1, i64 0
  %31 = call i32 (i8*, ...) @printf(i8* nonnull dereferenceable(1) getelementptr inbounds ([3 x i8], [3 x i8]* @.str, i64 0, i64 0), i8* nonnull %30)
  call void @llvm.lifetime.end.p0i8(i64 2002, i8* nonnull %2) #5
  ret i32 0
}

; Function Attrs: argmemonly mustprogress nofree nosync nounwind willreturn
declare void @llvm.lifetime.start.p0i8(i64 immarg, i8* nocapture) #1

declare i32 @gets(...) local_unnamed_addr #2

; Function Attrs: argmemonly mustprogress nofree nounwind readonly willreturn
declare i64 @strlen(i8* nocapture) local_unnamed_addr #3

; Function Attrs: nofree nounwind
declare noundef i32 @printf(i8* nocapture noundef readonly, ...) local_unnamed_addr #4

; Function Attrs: argmemonly mustprogress nofree nosync nounwind willreturn
declare void @llvm.lifetime.end.p0i8(i64 immarg, i8* nocapture) #1


!llvm.module.flags = !{!0, !1, !2, !3}
!llvm.ident = !{!4}

!0 = !{i32 1, !"wchar_size", i32 4}
!1 = !{i32 7, !"PIC Level", i32 2}
!2 = !{i32 7, !"PIE Level", i32 2}
!3 = !{i32 7, !"uwtable", i32 1}
!4 = !{!"clang version 13.0.0"}
!5 = !{!6, !6, i64 0}
!6 = !{!"omnipotent char", !7, i64 0}
!7 = !{!"Simple C/C++ TBAA"}
!8 = distinct !{!8, !9}
!9 = !{!"llvm.loop.mustprogress"}
